; ModuleID = '60/757.c'
source_filename = "60/757.c"
target datalayout = "e-m:e-p270:32:32-p271:32:32-p272:64:64-i64:64-f80:128-n8:16:32:64-S128"
target triple = "x86_64-pc-linux-gnu"

@.str = private unnamed_addr constant [3 x i8] c"%d\00", align 1
@.str.1 = private unnamed_addr constant [6 x i8] c"empty\00", align 1
@.str.2 = private unnamed_addr constant [7 x i8] c"%d %d\0A\00", align 1

; Function Attrs: noinline nounwind uwtable
define dso_local i32 @main() #0 {
  %1 = alloca i32, align 4
  %2 = alloca i32, align 4
  %3 = alloca i32, align 4
  %4 = alloca i32, align 4
  %5 = alloca i32, align 4
  %6 = alloca [100000 x i32], align 16
  store i32 0, i32* %1, align 4
  %7 = call i32 (i8*, ...) @__isoc99_scanf(i8* getelementptr inbounds ([3 x i8], [3 x i8]* @.str, i64 0, i64 0), i32* %4)
  %8 = load i32, i32* %4, align 4
  %9 = icmp slt i32 %8, 5
  br i1 %9, label %10, label %12

10:                                               ; preds = %0
  %11 = call i32 (i8*, ...) @printf(i8* getelementptr inbounds ([6 x i8], [6 x i8]* @.str.1, i64 0, i64 0))
  store i32 0, i32* %1, align 4
  br label %92

12:                                               ; preds = %0
  store i32 0, i32* %2, align 4
  br label %13

13:                                               ; preds = %20, %12
  %14 = load i32, i32* %2, align 4
  %15 = icmp slt i32 %14, 100000
  br i1 %15, label %16, label %23

16:                                               ; preds = %13
  %17 = load i32, i32* %2, align 4
  %18 = sext i32 %17 to i64
  %19 = getelementptr inbounds [100000 x i32], [100000 x i32]* %6, i64 0, i64 %18
  store i32 0, i32* %19, align 4
  br label %20

20:                                               ; preds = %16
  %21 = load i32, i32* %2, align 4
  %22 = add nsw i32 %21, 1
  store i32 %22, i32* %2, align 4
  br label %13

23:                                               ; preds = %13
  store i32 1, i32* %5, align 4
  %24 = getelementptr inbounds [100000 x i32], [100000 x i32]* %6, i64 0, i64 0
  store i32 2, i32* %24, align 16
  store i32 3, i32* %2, align 4
  br label %25

25:                                               ; preds = %56, %23
  %26 = load i32, i32* %2, align 4
  %27 = load i32, i32* %4, align 4
  %28 = icmp sle i32 %26, %27
  br i1 %28, label %29, label %59

29:                                               ; preds = %25
  store i32 2, i32* %3, align 4
  br label %30

30:                                               ; preds = %41, %29
  %31 = load i32, i32* %3, align 4
  %32 = load i32, i32* %2, align 4
  %33 = icmp sle i32 %31, %32
  br i1 %33, label %34, label %44

34:                                               ; preds = %30
  %35 = load i32, i32* %2, align 4
  %36 = load i32, i32* %3, align 4
  %37 = srem i32 %35, %36
  %38 = icmp eq i32 %37, 0
  br i1 %38, label %39, label %40

39:                                               ; preds = %34
  br label %44

40:                                               ; preds = %34
  br label %41

41:                                               ; preds = %40
  %42 = load i32, i32* %3, align 4
  %43 = add nsw i32 %42, 1
  store i32 %43, i32* %3, align 4
  br label %30

44:                                               ; preds = %39, %30
  %45 = load i32, i32* %3, align 4
  %46 = load i32, i32* %2, align 4
  %47 = icmp eq i32 %45, %46
  br i1 %47, label %48, label %55

48:                                               ; preds = %44
  %49 = load i32, i32* %2, align 4
  %50 = load i32, i32* %5, align 4
  %51 = sext i32 %50 to i64
  %52 = getelementptr inbounds [100000 x i32], [100000 x i32]* %6, i64 0, i64 %51
  store i32 %49, i32* %52, align 4
  %53 = load i32, i32* %5, align 4
  %54 = add nsw i32 %53, 1
  store i32 %54, i32* %5, align 4
  br label %55

55:                                               ; preds = %48, %44
  br label %56

56:                                               ; preds = %55
  %57 = load i32, i32* %2, align 4
  %58 = add nsw i32 %57, 1
  store i32 %58, i32* %2, align 4
  br label %25

59:                                               ; preds = %25
  store i32 0, i32* %2, align 4
  br label %60

60:                                               ; preds = %88, %59
  %61 = load i32, i32* %2, align 4
  %62 = load i32, i32* %5, align 4
  %63 = icmp sle i32 %61, %62
  br i1 %63, label %64, label %91

64:                                               ; preds = %60
  %65 = load i32, i32* %2, align 4
  %66 = add nsw i32 %65, 1
  %67 = sext i32 %66 to i64
  %68 = getelementptr inbounds [100000 x i32], [100000 x i32]* %6, i64 0, i64 %67
  %69 = load i32, i32* %68, align 4
  %70 = load i32, i32* %2, align 4
  %71 = sext i32 %70 to i64
  %72 = getelementptr inbounds [100000 x i32], [100000 x i32]* %6, i64 0, i64 %71
  %73 = load i32, i32* %72, align 4
  %74 = sub nsw i32 %69, %73
  %75 = icmp eq i32 %74, 2
  br i1 %75, label %76, label %87

76:                                               ; preds = %64
  %77 = load i32, i32* %2, align 4
  %78 = sext i32 %77 to i64
  %79 = getelementptr inbounds [100000 x i32], [100000 x i32]* %6, i64 0, i64 %78
  %80 = load i32, i32* %79, align 4
  %81 = load i32, i32* %2, align 4
  %82 = add nsw i32 %81, 1
  %83 = sext i32 %82 to i64
  %84 = getelementptr inbounds [100000 x i32], [100000 x i32]* %6, i64 0, i64 %83
  %85 = load i32, i32* %84, align 4
  %86 = call i32 (i8*, ...) @printf(i8* getelementptr inbounds ([7 x i8], [7 x i8]* @.str.2, i64 0, i64 0), i32 %80, i32 %85)
  br label %87

87:                                               ; preds = %76, %64
  br label %88

88:                                               ; preds = %87
  %89 = load i32, i32* %2, align 4
  %90 = add nsw i32 %89, 1
  store i32 %90, i32* %2, align 4
  br label %60

91:                                               ; preds = %60
  store i32 0, i32* %1, align 4
  br label %92

92:                                               ; preds = %91, %10
  %93 = load i32, i32* %1, align 4
  ret i32 %93
}

declare dso_local i32 @__isoc99_scanf(i8*, ...) #1

declare dso_local i32 @printf(i8*, ...) #1


!llvm.module.flags = !{!0}
!llvm.ident = !{!1}

!0 = !{i32 1, !"wchar_size", i32 4}
!1 = !{!"clang version 10.0.0-4ubuntu1 "}
